target datalayout = "e-m:e-p270:32:32-p271:32:32-p272:64:64-i64:64-i128:128-f80:128-n8:16:32:64-S128"
target triple = "x86_64-pc-linux-gnu"

%struct.AVSliceThread = type { ptr, i32, i32, i32, i32, i32, %union.pthread_mutex_t, %union.pthread_cond_t, i32, i32, ptr, ptr, ptr }
%union.pthread_mutex_t = type { %struct.__pthread_mutex_s }
%struct.__pthread_mutex_s = type { i32, i32, i32, i32, i32, i16, i16, %struct.__pthread_internal_list }
%struct.__pthread_internal_list = type { ptr, ptr }
%union.pthread_cond_t = type { %struct.__pthread_cond_s }
%struct.__pthread_cond_s = type { %union.__atomic_wide_counter, %union.__atomic_wide_counter, [2 x i32], [2 x i32], i32, i32, [2 x i32] }
%union.__atomic_wide_counter = type { i64 }
%struct.WorkerContext = type { ptr, %union.pthread_mutex_t, %union.pthread_cond_t, i64, i32 }

; Function Attrs: nounwind uwtable
define internal i32 @run_jobs(ptr noundef %0) #5 {
  %2 = alloca ptr, align 8
  %3 = alloca i32, align 4
  %4 = alloca i32, align 4
  %5 = alloca i32, align 4
  %6 = alloca i32, align 4
  %7 = alloca i32, align 4
  %8 = alloca i32, align 4
  %9 = alloca i32, align 4
  %10 = alloca i32, align 4
  store ptr %0, ptr %2, align 8, !tbaa !13
  call void @llvm.lifetime.start.p0(i64 4, ptr %3) #6
  %11 = load ptr, ptr %2, align 8, !tbaa !13
  %12 = getelementptr inbounds nuw %struct.AVSliceThread, ptr %11, i32 0, i32 3
  %13 = load i32, ptr %12, align 8, !tbaa !23
  store i32 %13, ptr %3, align 4, !tbaa !11
  call void @llvm.lifetime.start.p0(i64 4, ptr %4) #6
  %14 = load ptr, ptr %2, align 8, !tbaa !13
  %15 = getelementptr inbounds nuw %struct.AVSliceThread, ptr %14, i32 0, i32 2
  %16 = load i32, ptr %15, align 4, !tbaa !22
  store i32 %16, ptr %4, align 4, !tbaa !11
  call void @llvm.lifetime.start.p0(i64 4, ptr %5) #6
  %17 = load ptr, ptr %2, align 8, !tbaa !13
  %18 = getelementptr inbounds nuw %struct.AVSliceThread, ptr %17, i32 0, i32 4
  store i32 1, ptr %6, align 4, !tbaa !11
  %19 = load i32, ptr %6, align 4
  %20 = atomicrmw add ptr %18, i32 %19 acq_rel, align 4
  store i32 %20, ptr %7, align 4
  %21 = load i32, ptr %7, align 4, !tbaa !11
  store i32 %21, ptr %5, align 4, !tbaa !11
  call void @llvm.lifetime.start.p0(i64 4, ptr %8) #6
  %22 = load i32, ptr %5, align 4, !tbaa !11
  store i32 %22, ptr %8, align 4, !tbaa !11
  br label %23

23:                                               ; preds = %34, %1
  %24 = load ptr, ptr %2, align 8, !tbaa !13
  %25 = getelementptr inbounds nuw %struct.AVSliceThread, ptr %24, i32 0, i32 11
  %26 = load ptr, ptr %25, align 8, !tbaa !19
  %27 = load ptr, ptr %2, align 8, !tbaa !13
  %28 = getelementptr inbounds nuw %struct.AVSliceThread, ptr %27, i32 0, i32 10
  %29 = load ptr, ptr %28, align 8, !tbaa !18
  %30 = load i32, ptr %8, align 4, !tbaa !11
  %31 = load i32, ptr %5, align 4, !tbaa !11
  %32 = load i32, ptr %3, align 4, !tbaa !11
  %33 = load i32, ptr %4, align 4, !tbaa !11
  call void %26(ptr noundef %29, i32 noundef %30, i32 noundef %31, i32 noundef %32, i32 noundef %33)
  br label %34

34:                                               ; preds = %23
  %35 = load ptr, ptr %2, align 8, !tbaa !13
  %36 = getelementptr inbounds nuw %struct.AVSliceThread, ptr %35, i32 0, i32 5
  store i32 1, ptr %9, align 4, !tbaa !11
  %37 = load i32, ptr %9, align 4
  %38 = atomicrmw add ptr %36, i32 %37 acq_rel, align 8
  store i32 %38, ptr %10, align 4
  %39 = load i32, ptr %10, align 4, !tbaa !11
  store i32 %39, ptr %8, align 4, !tbaa !11
  %40 = load i32, ptr %3, align 4, !tbaa !11
  %41 = icmp ult i32 %39, %40
  br i1 %41, label %23, label %42, !llvm.loop !41

42:                                               ; preds = %34
  %43 = load i32, ptr %8, align 4, !tbaa !11
  %44 = load i32, ptr %3, align 4, !tbaa !11
  %45 = load i32, ptr %4, align 4, !tbaa !11
  %46 = add i32 %44, %45
  %47 = sub i32 %46, 1
  %48 = icmp eq i32 %43, %47
  %49 = zext i1 %48 to i32
  call void @llvm.lifetime.end.p0(i64 4, ptr %8) #6
  call void @llvm.lifetime.end.p0(i64 4, ptr %5) #6
  call void @llvm.lifetime.end.p0(i64 4, ptr %4) #6
  call void @llvm.lifetime.end.p0(i64 4, ptr %3) #6
  ret i32 %49
}

; Function Attrs: nounwind uwtable
define internal ptr @thread_worker(ptr noundef %0) #5 {
  %2 = alloca ptr, align 8
  %3 = alloca ptr, align 8
  %4 = alloca ptr, align 8
  store ptr %0, ptr %2, align 8, !tbaa !10
  call void @llvm.lifetime.start.p0(i64 8, ptr %3) #6
  %5 = load ptr, ptr %2, align 8, !tbaa !10
  store ptr %5, ptr %3, align 8, !tbaa !27
  call void @llvm.lifetime.start.p0(i64 8, ptr %4) #6
  %6 = load ptr, ptr %3, align 8, !tbaa !27
  %7 = getelementptr inbounds nuw %struct.WorkerContext, ptr %6, i32 0, i32 0
  %8 = load ptr, ptr %7, align 8, !tbaa !28
  store ptr %8, ptr %4, align 8, !tbaa !13
  %9 = load ptr, ptr %3, align 8, !tbaa !27
  %10 = getelementptr inbounds nuw %struct.WorkerContext, ptr %9, i32 0, i32 1
  %11 = call i32 @pthread_mutex_lock(ptr noundef %10) #6
  %12 = load ptr, ptr %3, align 8, !tbaa !27
  %13 = getelementptr inbounds nuw %struct.WorkerContext, ptr %12, i32 0, i32 2
  %14 = call i32 @pthread_cond_signal(ptr noundef %13) #6
  br label %15

15:                                               ; preds = %55, %1
  br label %16

16:                                               ; preds = %15
  %17 = load ptr, ptr %3, align 8, !tbaa !27
  %18 = getelementptr inbounds nuw %struct.WorkerContext, ptr %17, i32 0, i32 4
  store i32 1, ptr %18, align 8, !tbaa !31
  br label %19

19:                                               ; preds = %24, %16
  %20 = load ptr, ptr %3, align 8, !tbaa !27
  %21 = getelementptr inbounds nuw %struct.WorkerContext, ptr %20, i32 0, i32 4
  %22 = load i32, ptr %21, align 8, !tbaa !31
  %23 = icmp ne i32 %22, 0
  br i1 %23, label %24, label %30

24:                                               ; preds = %19
  %25 = load ptr, ptr %3, align 8, !tbaa !27
  %26 = getelementptr inbounds nuw %struct.WorkerContext, ptr %25, i32 0, i32 2
  %27 = load ptr, ptr %3, align 8, !tbaa !27
  %28 = getelementptr inbounds nuw %struct.WorkerContext, ptr %27, i32 0, i32 1
  %29 = call i32 @pthread_cond_wait(ptr noundef %26, ptr noundef %28)
  br label %19, !llvm.loop !38

30:                                               ; preds = %19
  %31 = load ptr, ptr %4, align 8, !tbaa !13
  %32 = getelementptr inbounds nuw %struct.AVSliceThread, ptr %31, i32 0, i32 9
  %33 = load i32, ptr %32, align 4, !tbaa !24
  %34 = icmp ne i32 %33, 0
  br i1 %34, label %35, label %39

35:                                               ; preds = %30
  %36 = load ptr, ptr %3, align 8, !tbaa !27
  %37 = getelementptr inbounds nuw %struct.WorkerContext, ptr %36, i32 0, i32 1
  %38 = call i32 @pthread_mutex_unlock(ptr noundef %37) #6
  call void @llvm.lifetime.end.p0(i64 8, ptr %4) #6
  call void @llvm.lifetime.end.p0(i64 8, ptr %3) #6
  ret ptr null

39:                                               ; preds = %30
  %40 = load ptr, ptr %4, align 8, !tbaa !13
  %41 = call i32 @run_jobs(ptr noundef %40)
  %42 = icmp ne i32 %41, 0
  br i1 %42, label %43, label %55

43:                                               ; preds = %39
  %44 = load ptr, ptr %4, align 8, !tbaa !13
  %45 = getelementptr inbounds nuw %struct.AVSliceThread, ptr %44, i32 0, i32 6
  %46 = call i32 @pthread_mutex_lock(ptr noundef %45) #6
  %47 = load ptr, ptr %4, align 8, !tbaa !13
  %48 = getelementptr inbounds nuw %struct.AVSliceThread, ptr %47, i32 0, i32 8
  store i32 1, ptr %48, align 8, !tbaa !26
  %49 = load ptr, ptr %4, align 8, !tbaa !13
  %50 = getelementptr inbounds nuw %struct.AVSliceThread, ptr %49, i32 0, i32 7
  %51 = call i32 @pthread_cond_signal(ptr noundef %50) #6
  %52 = load ptr, ptr %4, align 8, !tbaa !13
  %53 = getelementptr inbounds nuw %struct.AVSliceThread, ptr %52, i32 0, i32 6
  %54 = call i32 @pthread_mutex_unlock(ptr noundef %53) #6
  br label %55

55:                                               ; preds = %43, %39
  br label %15
}