; Function Attrs: nounwind uwtable
define internal noundef ptr @thread_worker(ptr noundef %0) #4 {
  %2 = load ptr, ptr %0, align 8, !tbaa !19
  %3 = getelementptr inbounds nuw i8, ptr %0, i64 8
  %4 = tail call i32 @pthread_mutex_lock(ptr noundef nonnull %3) #7
  %5 = getelementptr inbounds nuw i8, ptr %0, i64 48
  %6 = tail call i32 @pthread_cond_signal(ptr noundef nonnull %5) #7
  %7 = getelementptr inbounds nuw i8, ptr %2, i64 124
  %8 = getelementptr inbounds nuw i8, ptr %0, i64 104
  %9 = getelementptr inbounds nuw i8, ptr %2, i64 16
  %10 = getelementptr inbounds nuw i8, ptr %2, i64 12
  %11 = getelementptr inbounds nuw i8, ptr %2, i64 20
  %12 = getelementptr inbounds nuw i8, ptr %2, i64 136
  %13 = getelementptr inbounds nuw i8, ptr %2, i64 128
  %14 = getelementptr inbounds nuw i8, ptr %2, i64 24
  %15 = getelementptr inbounds nuw i8, ptr %2, i64 32
  %16 = getelementptr inbounds nuw i8, ptr %2, i64 120
  %17 = getelementptr inbounds nuw i8, ptr %2, i64 72
  br label %18

18:                                               ; preds = %.backedge, %1
  store i32 1, ptr %8, align 8, !tbaa !22
  br label %19

19:                                               ; preds = %18, %19
  %20 = tail call i32 @pthread_cond_wait(ptr noundef nonnull %5, ptr noundef nonnull %3) #7
  %.pr = load i32, ptr %8, align 8, !tbaa !22
  %.not = icmp eq i32 %.pr, 0
  br i1 %.not, label %21, label %19, !llvm.loop !29

21:                                               ; preds = %19
  %22 = load i32, ptr %7, align 4, !tbaa !17
  %.not15 = icmp eq i32 %22, 0
  br i1 %.not15, label %25, label %23

23:                                               ; preds = %21
  %24 = tail call i32 @pthread_mutex_unlock(ptr noundef nonnull %3) #7
  ret ptr null

25:                                               ; preds = %21
  %26 = load i32, ptr %9, align 8, !tbaa !30
  %27 = load i32, ptr %10, align 4, !tbaa !31
  %28 = atomicrmw add ptr %11, i32 1 acq_rel, align 4
  br label %29

29:                                               ; preds = %29, %25
  %.0.i = phi i32 [ %28, %25 ], [ %32, %29 ]
  %30 = load ptr, ptr %12, align 8, !tbaa !14
  %31 = load ptr, ptr %13, align 8, !tbaa !13
  tail call void %30(ptr noundef %31, i32 noundef %.0.i, i32 noundef %28, i32 noundef %26, i32 noundef %27) #7
  %32 = atomicrmw add ptr %14, i32 1 acq_rel, align 8
  %33 = icmp ult i32 %32, %26
  br i1 %33, label %29, label %run_jobs.exit, !llvm.loop !32

run_jobs.exit:                                    ; preds = %29
  %34 = add i32 %26, -1
  %35 = add i32 %34, %27
  %.not17 = icmp eq i32 %32, %35
  br i1 %.not17, label %36, label %.backedge

36:                                               ; preds = %run_jobs.exit
  %37 = tail call i32 @pthread_mutex_lock(ptr noundef nonnull %15) #7
  store i32 1, ptr %16, align 8, !tbaa !18
  %38 = tail call i32 @pthread_cond_signal(ptr noundef nonnull %17) #7
  %39 = tail call i32 @pthread_mutex_unlock(ptr noundef nonnull %15) #7
  br label %.backedge

.backedge:                                        ; preds = %36, %run_jobs.exit
  br label %18
}